target datalayout = "e-m:e-p270:32:32-p271:32:32-p272:64:64-i64:64-i128:128-f80:128-n8:16:32:64-S128"
target triple = "x86_64-pc-linux-gnu"

; Function Attrs: nounwind uwtable
define void @SEED_cbc_encrypt(ptr noundef %0, ptr noundef %1, i64 noundef %2, ptr noundef %3, ptr noundef %4, i32 noundef %5) #0 {
  %7 = alloca ptr, align 8
  %8 = alloca ptr, align 8
  %9 = alloca i64, align 8
  %10 = alloca ptr, align 8
  %11 = alloca ptr, align 8
  %12 = alloca i32, align 4
  store ptr %0, ptr %7, align 8, !tbaa !3
  store ptr %1, ptr %8, align 8, !tbaa !3
  store i64 %2, ptr %9, align 8, !tbaa !8
  store ptr %3, ptr %10, align 8, !tbaa !10
  store ptr %4, ptr %11, align 8, !tbaa !3
  store i32 %5, ptr %12, align 4, !tbaa !12
  %13 = load i32, ptr %12, align 4, !tbaa !12
  %14 = icmp ne i32 %13, 0
  br i1 %14, label %15, label %21

15:                                               ; preds = %6
  %16 = load ptr, ptr %7, align 8, !tbaa !3
  %17 = load ptr, ptr %8, align 8, !tbaa !3
  %18 = load i64, ptr %9, align 8, !tbaa !8
  %19 = load ptr, ptr %10, align 8, !tbaa !10
  %20 = load ptr, ptr %11, align 8, !tbaa !3
  call void @CRYPTO_cbc128_encrypt(ptr noundef %16, ptr noundef %17, i64 noundef %18, ptr noundef %19, ptr noundef %20, ptr noundef @SEED_encrypt)
  br label %27

21:                                               ; preds = %6
  %22 = load ptr, ptr %7, align 8, !tbaa !3
  %23 = load ptr, ptr %8, align 8, !tbaa !3
  %24 = load i64, ptr %9, align 8, !tbaa !8
  %25 = load ptr, ptr %10, align 8, !tbaa !10
  %26 = load ptr, ptr %11, align 8, !tbaa !3
  call void @CRYPTO_cbc128_decrypt(ptr noundef %22, ptr noundef %23, i64 noundef %24, ptr noundef %25, ptr noundef %26, ptr noundef @SEED_decrypt)
  br label %27

27:                                               ; preds = %21, %15
  ret void
}

declare void @CRYPTO_cbc128_encrypt(ptr noundef, ptr noundef, i64 noundef, ptr noundef, ptr noundef, ptr noundef) #1

declare void @SEED_encrypt(ptr noundef, ptr noundef, ptr noundef) #1

declare void @CRYPTO_cbc128_decrypt(ptr noundef, ptr noundef, i64 noundef, ptr noundef, ptr noundef, ptr noundef) #1

declare void @SEED_decrypt(ptr noundef, ptr noundef, ptr noundef) #1


!llvm.module.flags = !{!0, !1, !2}

!0 = !{i32 1, !"wchar_size", i32 4}
!1 = !{i32 8, !"PIC Level", i32 2}
!2 = !{i32 7, !"uwtable", i32 2}
!3 = !{!4, !4, i64 0}
!4 = !{!"p1 omnipotent char", !5, i64 0}
!5 = !{!"any pointer", !6, i64 0}
!6 = !{!"omnipotent char", !7, i64 0}
!7 = !{!"Simple C/C++ TBAA"}
!8 = !{!9, !9, i64 0}
!9 = !{!"long", !6, i64 0}
!10 = !{!11, !11, i64 0}
!11 = !{!"p1 _ZTS11seed_key_st", !5, i64 0}
!12 = !{!13, !13, i64 0}
!13 = !{!"int", !6, i64 0}
