; ModuleID = 'bench/openssl/original/seed_cbc.ll'
source_filename = "bench/openssl/original/seed_cbc.ll"
target datalayout = "e-m:e-p270:32:32-p271:32:32-p272:64:64-i64:64-i128:128-f80:128-n8:16:32:64-S128"
target triple = "x86_64-pc-linux-gnu"

; Function Attrs: nounwind uwtable
define void @SEED_cbc_encrypt(ptr noundef %0, ptr noundef %1, i64 noundef %2, ptr noundef %3, ptr noundef %4, i32 noundef %5) local_unnamed_addr #0 {
  %.not = icmp eq i32 %5, 0
  br i1 %.not, label %8, label %7

7:                                                ; preds = %6
  tail call void @CRYPTO_cbc128_encrypt(ptr noundef %0, ptr noundef %1, i64 noundef %2, ptr noundef %3, ptr noundef %4, ptr noundef nonnull @SEED_encrypt) #2
  br label %9

8:                                                ; preds = %6
  tail call void @CRYPTO_cbc128_decrypt(ptr noundef %0, ptr noundef %1, i64 noundef %2, ptr noundef %3, ptr noundef %4, ptr noundef nonnull @SEED_decrypt) #2
  br label %9

9:                                                ; preds = %8, %7
  ret void
}

declare void @CRYPTO_cbc128_encrypt(ptr noundef, ptr noundef, i64 noundef, ptr noundef, ptr noundef, ptr noundef) local_unnamed_addr #1

declare void @SEED_encrypt(ptr noundef, ptr noundef, ptr noundef) #1

declare void @CRYPTO_cbc128_decrypt(ptr noundef, ptr noundef, i64 noundef, ptr noundef, ptr noundef, ptr noundef) local_unnamed_addr #1

declare void @SEED_decrypt(ptr noundef, ptr noundef, ptr noundef) #1


!llvm.module.flags = !{!0, !1, !2}

!0 = !{i32 1, !"wchar_size", i32 4}
!1 = !{i32 8, !"PIC Level", i32 2}
!2 = !{i32 7, !"uwtable", i32 2}
